target datalayout = "e-m:e-p270:32:32-p271:32:32-p272:64:64-i64:64-i128:128-f80:128-n8:16:32:64-S128"
target triple = "x86_64-pc-linux-gnu"

; Function Attrs: alwaysinline nounwind willreturn memory(none) uwtable
define internal zeroext i8 @av_clip_uint8_c(i32 noundef %0) #5 {
  %2 = alloca i8, align 1
  %3 = alloca i32, align 4
  store i32 %0, ptr %3, align 4, !tbaa !45
  %4 = load i32, ptr %3, align 4, !tbaa !45
  %5 = and i32 %4, -256
  %6 = icmp ne i32 %5, 0
  br i1 %6, label %7, label %12

7:                                                ; preds = %1
  %8 = load i32, ptr %3, align 4, !tbaa !45
  %9 = xor i32 %8, -1
  %10 = ashr i32 %9, 31
  %11 = trunc i32 %10 to i8
  store i8 %11, ptr %2, align 1
  br label %15

12:                                               ; preds = %1
  %13 = load i32, ptr %3, align 4, !tbaa !45
  %14 = trunc i32 %13 to i8
  store i8 %14, ptr %2, align 1
  br label %15

15:                                               ; preds = %12, %7
  %16 = load i8, ptr %2, align 1
  ret i8 %16
}

; Function Attrs: nounwind uwtable
define internal void @compute_contrast_change(ptr noundef %0, ptr noundef %1, ptr noundef %2, i64 noundef %3) #1 {
  %5 = alloca ptr, align 8
  %6 = alloca ptr, align 8
  %7 = alloca ptr, align 8
  %8 = alloca i64, align 8
  %9 = alloca i32, align 4
  %10 = alloca i32, align 4
  store ptr %0, ptr %5, align 8, !tbaa !52
  store ptr %1, ptr %6, align 8, !tbaa !52
  store ptr %2, ptr %7, align 8, !tbaa !58
  store i64 %3, ptr %8, align 8, !tbaa !57
  call void @llvm.lifetime.start.p0(i64 4, ptr %9) #10
  store i32 0, ptr %9, align 4, !tbaa !45
  br label %11

11:                                               ; preds = %49, %4
  %12 = load i32, ptr %9, align 4, !tbaa !45
  %13 = sext i32 %12 to i64
  %14 = load i64, ptr %8, align 8, !tbaa !57
  %15 = icmp ult i64 %13, %14
  br i1 %15, label %16, label %52

16:                                               ; preds = %11
  call void @llvm.lifetime.start.p0(i64 4, ptr %10) #10
  store i32 0, ptr %10, align 4, !tbaa !45
  br label %17

17:                                               ; preds = %37, %16
  %18 = load i32, ptr %10, align 4, !tbaa !45
  %19 = sext i32 %18 to i64
  %20 = load i64, ptr %8, align 8, !tbaa !57
  %21 = icmp ult i64 %19, %20
  br i1 %21, label %22, label %34

22:                                               ; preds = %17
  %23 = load ptr, ptr %6, align 8, !tbaa !52
  %24 = load i32, ptr %10, align 4, !tbaa !45
  %25 = sext i32 %24 to i64
  %26 = getelementptr inbounds float, ptr %23, i64 %25
  %27 = load float, ptr %26, align 4, !tbaa !69
  %28 = load ptr, ptr %5, align 8, !tbaa !52
  %29 = load i32, ptr %9, align 4, !tbaa !45
  %30 = sext i32 %29 to i64
  %31 = getelementptr inbounds float, ptr %28, i64 %30
  %32 = load float, ptr %31, align 4, !tbaa !69
  %33 = fcmp nsz olt float %27, %32
  br label %34

34:                                               ; preds = %22, %17
  %35 = phi i1 [ false, %17 ], [ %33, %22 ]
  br i1 %35, label %36, label %40

36:                                               ; preds = %34
  br label %37

37:                                               ; preds = %36
  %38 = load i32, ptr %10, align 4, !tbaa !45
  %39 = add nsw i32 %38, 1
  store i32 %39, ptr %10, align 4, !tbaa !45
  br label %17, !llvm.loop !74

40:                                               ; preds = %34
  %41 = load i32, ptr %9, align 4, !tbaa !45
  %42 = load i32, ptr %10, align 4, !tbaa !45
  %43 = add nsw i32 %41, %42
  %44 = sdiv i32 %43, 2
  %45 = load ptr, ptr %7, align 8, !tbaa !58
  %46 = load i32, ptr %9, align 4, !tbaa !45
  %47 = sext i32 %46 to i64
  %48 = getelementptr inbounds i32, ptr %45, i64 %47
  store i32 %44, ptr %48, align 4, !tbaa !45
  call void @llvm.lifetime.end.p0(i64 4, ptr %10) #10
  br label %49

49:                                               ; preds = %40
  %50 = load i32, ptr %9, align 4, !tbaa !45
  %51 = add nsw i32 %50, 1
  store i32 %51, ptr %9, align 4, !tbaa !45
  br label %11, !llvm.loop !75

52:                                               ; preds = %11
  call void @llvm.lifetime.end.p0(i64 4, ptr %9) #10
  ret void
}

; Function Attrs: nounwind uwtable
define internal void @compute_histogram8(ptr noundef %0, i64 noundef %1, i32 noundef %2, i32 noundef %3, ptr noundef %4, i64 noundef %5) #1 {
  %7 = alloca ptr, align 8
  %8 = alloca i64, align 8
  %9 = alloca i32, align 4
  %10 = alloca i32, align 4
  %11 = alloca ptr, align 8
  %12 = alloca i64, align 8
  %13 = alloca i32, align 4
  %14 = alloca i32, align 4
  store ptr %0, ptr %7, align 8, !tbaa !56
  store i64 %1, ptr %8, align 8, !tbaa !57
  store i32 %2, ptr %9, align 4, !tbaa !45
  store i32 %3, ptr %10, align 4, !tbaa !45
  store ptr %4, ptr %11, align 8, !tbaa !52
  store i64 %5, ptr %12, align 8, !tbaa !57
  call void @llvm.lifetime.start.p0(i64 4, ptr %13) #10
  call void @llvm.lifetime.start.p0(i64 4, ptr %14) #10
  %15 = load ptr, ptr %11, align 8, !tbaa !52
  %16 = load i64, ptr %12, align 8, !tbaa !57
  %17 = mul i64 %16, 4
  call void @llvm.memset.p0.i64(ptr align 4 %15, i8 0, i64 %17, i1 false)
  store i32 0, ptr %13, align 4, !tbaa !45
  br label %18

18:                                               ; preds = %45, %6
  %19 = load i32, ptr %13, align 4, !tbaa !45
  %20 = load i32, ptr %10, align 4, !tbaa !45
  %21 = icmp slt i32 %19, %20
  br i1 %21, label %22, label %48

22:                                               ; preds = %18
  store i32 0, ptr %14, align 4, !tbaa !45
  br label %23

23:                                               ; preds = %38, %22
  %24 = load i32, ptr %14, align 4, !tbaa !45
  %25 = load i32, ptr %9, align 4, !tbaa !45
  %26 = icmp slt i32 %24, %25
  br i1 %26, label %27, label %41

27:                                               ; preds = %23
  %28 = load ptr, ptr %11, align 8, !tbaa !52
  %29 = load ptr, ptr %7, align 8, !tbaa !56
  %30 = load i32, ptr %14, align 4, !tbaa !45
  %31 = sext i32 %30 to i64
  %32 = getelementptr inbounds i8, ptr %29, i64 %31
  %33 = load i8, ptr %32, align 1, !tbaa !59
  %34 = zext i8 %33 to i64
  %35 = getelementptr inbounds nuw float, ptr %28, i64 %34
  %36 = load float, ptr %35, align 4, !tbaa !69
  %37 = fadd nsz float %36, 1.000000e+00
  store float %37, ptr %35, align 4, !tbaa !69
  br label %38

38:                                               ; preds = %27
  %39 = load i32, ptr %14, align 4, !tbaa !45
  %40 = add nsw i32 %39, 1
  store i32 %40, ptr %14, align 4, !tbaa !45
  br label %23, !llvm.loop !71

41:                                               ; preds = %23
  %42 = load i64, ptr %8, align 8, !tbaa !57
  %43 = load ptr, ptr %7, align 8, !tbaa !56
  %44 = getelementptr inbounds i8, ptr %43, i64 %42
  store ptr %44, ptr %7, align 8, !tbaa !56
  br label %45

45:                                               ; preds = %41
  %46 = load i32, ptr %13, align 4, !tbaa !45
  %47 = add nsw i32 %46, 1
  store i32 %47, ptr %13, align 4, !tbaa !45
  br label %18, !llvm.loop !72

48:                                               ; preds = %18
  store i32 0, ptr %14, align 4, !tbaa !45
  br label %49

49:                                               ; preds = %76, %48
  %50 = load i32, ptr %14, align 4, !tbaa !45
  %51 = sext i32 %50 to i64
  %52 = load i64, ptr %12, align 8, !tbaa !57
  %53 = sub i64 %52, 1
  %54 = icmp ult i64 %51, %53
  br i1 %54, label %55, label %79

55:                                               ; preds = %49
  %56 = load ptr, ptr %11, align 8, !tbaa !52
  %57 = load i32, ptr %14, align 4, !tbaa !45
  %58 = sext i32 %57 to i64
  %59 = getelementptr inbounds float, ptr %56, i64 %58
  %60 = load float, ptr %59, align 4, !tbaa !69
  %61 = load ptr, ptr %11, align 8, !tbaa !52
  %62 = load i32, ptr %14, align 4, !tbaa !45
  %63 = add nsw i32 %62, 1
  %64 = sext i32 %63 to i64
  %65 = getelementptr inbounds float, ptr %61, i64 %64
  %66 = load float, ptr %65, align 4, !tbaa !69
  %67 = fadd nsz float %66, %60
  store float %67, ptr %65, align 4, !tbaa !69
  %68 = load i64, ptr %12, align 8, !tbaa !57
  %69 = uitofp i64 %68 to float
  %70 = load ptr, ptr %11, align 8, !tbaa !52
  %71 = load i32, ptr %14, align 4, !tbaa !45
  %72 = sext i32 %71 to i64
  %73 = getelementptr inbounds float, ptr %70, i64 %72
  %74 = load float, ptr %73, align 4, !tbaa !69
  %75 = fdiv nsz float %74, %69
  store float %75, ptr %73, align 4, !tbaa !69
  br label %76

76:                                               ; preds = %55
  %77 = load i32, ptr %14, align 4, !tbaa !45
  %78 = add nsw i32 %77, 1
  store i32 %78, ptr %14, align 4, !tbaa !45
  br label %49, !llvm.loop !73

79:                                               ; preds = %49
  %80 = load i64, ptr %12, align 8, !tbaa !57
  %81 = uitofp i64 %80 to float
  %82 = load ptr, ptr %11, align 8, !tbaa !52
  %83 = load i32, ptr %14, align 4, !tbaa !45
  %84 = sext i32 %83 to i64
  %85 = getelementptr inbounds float, ptr %82, i64 %84
  %86 = load float, ptr %85, align 4, !tbaa !69
  %87 = fdiv nsz float %86, %81
  store float %87, ptr %85, align 4, !tbaa !69
  call void @llvm.lifetime.end.p0(i64 4, ptr %14) #10
  call void @llvm.lifetime.end.p0(i64 4, ptr %13) #10
  ret void
}

; Function Attrs: nounwind uwtable
define internal void @midequalizer8(ptr noundef %0, ptr noundef %1, ptr noundef %2, i64 noundef %3, i64 noundef %4, i64 noundef %5, i32 noundef %6, i32 noundef %7, i32 noundef %8, i32 noundef %9, ptr noundef %10, ptr noundef %11, ptr noundef %12, i64 noundef %13) #1 {
  %15 = alloca ptr, align 8
  %16 = alloca ptr, align 8
  %17 = alloca ptr, align 8
  %18 = alloca i64, align 8
  %19 = alloca i64, align 8
  %20 = alloca i64, align 8
  %21 = alloca i32, align 4
  %22 = alloca i32, align 4
  %23 = alloca i32, align 4
  %24 = alloca i32, align 4
  %25 = alloca ptr, align 8
  %26 = alloca ptr, align 8
  %27 = alloca ptr, align 8
  %28 = alloca i64, align 8
  %29 = alloca i32, align 4
  %30 = alloca i32, align 4
  store ptr %0, ptr %15, align 8, !tbaa !56
  store ptr %1, ptr %16, align 8, !tbaa !56
  store ptr %2, ptr %17, align 8, !tbaa !56
  store i64 %3, ptr %18, align 8, !tbaa !57
  store i64 %4, ptr %19, align 8, !tbaa !57
  store i64 %5, ptr %20, align 8, !tbaa !57
  store i32 %6, ptr %21, align 4, !tbaa !45
  store i32 %7, ptr %22, align 4, !tbaa !45
  store i32 %8, ptr %23, align 4, !tbaa !45
  store i32 %9, ptr %24, align 4, !tbaa !45
  store ptr %10, ptr %25, align 8, !tbaa !52
  store ptr %11, ptr %26, align 8, !tbaa !52
  store ptr %12, ptr %27, align 8, !tbaa !58
  store i64 %13, ptr %28, align 8, !tbaa !57
  call void @llvm.lifetime.start.p0(i64 4, ptr %29) #10
  call void @llvm.lifetime.start.p0(i64 4, ptr %30) #10
  %31 = load ptr, ptr %15, align 8, !tbaa !56
  %32 = load i64, ptr %18, align 8, !tbaa !57
  %33 = load i32, ptr %21, align 4, !tbaa !45
  %34 = load i32, ptr %22, align 4, !tbaa !45
  %35 = load ptr, ptr %25, align 8, !tbaa !52
  %36 = load i64, ptr %28, align 8, !tbaa !57
  call void @compute_histogram8(ptr noundef %31, i64 noundef %32, i32 noundef %33, i32 noundef %34, ptr noundef %35, i64 noundef %36)
  %37 = load ptr, ptr %16, align 8, !tbaa !56
  %38 = load i64, ptr %19, align 8, !tbaa !57
  %39 = load i32, ptr %23, align 4, !tbaa !45
  %40 = load i32, ptr %24, align 4, !tbaa !45
  %41 = load ptr, ptr %26, align 8, !tbaa !52
  %42 = load i64, ptr %28, align 8, !tbaa !57
  call void @compute_histogram8(ptr noundef %37, i64 noundef %38, i32 noundef %39, i32 noundef %40, ptr noundef %41, i64 noundef %42)
  %43 = load ptr, ptr %25, align 8, !tbaa !52
  %44 = load ptr, ptr %26, align 8, !tbaa !52
  %45 = load ptr, ptr %27, align 8, !tbaa !58
  %46 = load i64, ptr %28, align 8, !tbaa !57
  call void @compute_contrast_change(ptr noundef %43, ptr noundef %44, ptr noundef %45, i64 noundef %46)
  store i32 0, ptr %30, align 4, !tbaa !45
  br label %47

47:                                               ; preds = %81, %14
  %48 = load i32, ptr %30, align 4, !tbaa !45
  %49 = load i32, ptr %22, align 4, !tbaa !45
  %50 = icmp slt i32 %48, %49
  br i1 %50, label %51, label %84

51:                                               ; preds = %47
  store i32 0, ptr %29, align 4, !tbaa !45
  br label %52

52:                                               ; preds = %71, %51
  %53 = load i32, ptr %29, align 4, !tbaa !45
  %54 = load i32, ptr %21, align 4, !tbaa !45
  %55 = icmp slt i32 %53, %54
  br i1 %55, label %56, label %74

56:                                               ; preds = %52
  %57 = load ptr, ptr %27, align 8, !tbaa !58
  %58 = load ptr, ptr %15, align 8, !tbaa !56
  %59 = load i32, ptr %29, align 4, !tbaa !45
  %60 = sext i32 %59 to i64
  %61 = getelementptr inbounds i8, ptr %58, i64 %60
  %62 = load i8, ptr %61, align 1, !tbaa !59
  %63 = zext i8 %62 to i64
  %64 = getelementptr inbounds nuw i32, ptr %57, i64 %63
  %65 = load i32, ptr %64, align 4, !tbaa !45
  %66 = call zeroext i8 @av_clip_uint8_c(i32 noundef %65) #11
  %67 = load ptr, ptr %17, align 8, !tbaa !56
  %68 = load i32, ptr %29, align 4, !tbaa !45
  %69 = sext i32 %68 to i64
  %70 = getelementptr inbounds i8, ptr %67, i64 %69
  store i8 %66, ptr %70, align 1, !tbaa !59
  br label %71

71:                                               ; preds = %56
  %72 = load i32, ptr %29, align 4, !tbaa !45
  %73 = add nsw i32 %72, 1
  store i32 %73, ptr %29, align 4, !tbaa !45
  br label %52, !llvm.loop !60

74:                                               ; preds = %52
  %75 = load i64, ptr %20, align 8, !tbaa !57
  %76 = load ptr, ptr %17, align 8, !tbaa !56
  %77 = getelementptr inbounds i8, ptr %76, i64 %75
  store ptr %77, ptr %17, align 8, !tbaa !56
  %78 = load i64, ptr %18, align 8, !tbaa !57
  %79 = load ptr, ptr %15, align 8, !tbaa !56
  %80 = getelementptr inbounds i8, ptr %79, i64 %78
  store ptr %80, ptr %15, align 8, !tbaa !56
  br label %81

81:                                               ; preds = %74
  %82 = load i32, ptr %30, align 4, !tbaa !45
  %83 = add nsw i32 %82, 1
  store i32 %83, ptr %30, align 4, !tbaa !45
  br label %47, !llvm.loop !62

84:                                               ; preds = %47
  call void @llvm.lifetime.end.p0(i64 4, ptr %30) #10
  call void @llvm.lifetime.end.p0(i64 4, ptr %29) #10
  ret void
}