; Function Attrs: nofree norecurse nosync nounwind memory(argmem: readwrite) uwtable
define internal void @midequalizer8(ptr noundef readonly captures(none) %0, ptr noundef readonly captures(none) %1, ptr noundef writeonly captures(none) %2, i64 noundef %3, i64 noundef %4, i64 noundef %5, i32 noundef %6, i32 noundef %7, i32 noundef %8, i32 noundef %9, ptr noundef captures(none) %10, ptr noundef captures(none) %11, ptr noundef captures(none) %12, i64 noundef %13) #4 {
  %15 = shl i64 %13, 2
  tail call void @llvm.memset.p0.i64(ptr align 4 %10, i8 0, i64 %15, i1 false)
  %16 = icmp sgt i32 %7, 0
  %17 = icmp sgt i32 %6, 0
  %or.cond.i = and i1 %17, %16
  br i1 %or.cond.i, label %.preheader29.us.preheader.i, label %.preheader.i

.preheader29.us.preheader.i:                      ; preds = %14
  %wide.trip.count.i = zext nneg i32 %6 to i64
  br label %.preheader29.us.i

.preheader29.us.i:                                ; preds = %._crit_edge.us.i, %.preheader29.us.preheader.i
  %.02532.us.i = phi i32 [ %26, %._crit_edge.us.i ], [ 0, %.preheader29.us.preheader.i ]
  %.02631.us.i = phi ptr [ %25, %._crit_edge.us.i ], [ %0, %.preheader29.us.preheader.i ]
  br label %18

18:                                               ; preds = %18, %.preheader29.us.i
  %indvars.iv.i = phi i64 [ 0, %.preheader29.us.i ], [ %indvars.iv.next.i, %18 ]
  %19 = getelementptr inbounds nuw i8, ptr %.02631.us.i, i64 %indvars.iv.i
  %20 = load i8, ptr %19, align 1, !tbaa !49
  %21 = zext i8 %20 to i64
  %22 = getelementptr inbounds nuw float, ptr %10, i64 %21
  %23 = load float, ptr %22, align 4, !tbaa !50
  %24 = fadd nsz float %23, 1.000000e+00
  store float %24, ptr %22, align 4, !tbaa !50
  %indvars.iv.next.i = add nuw nsw i64 %indvars.iv.i, 1
  %exitcond.not.i = icmp eq i64 %indvars.iv.next.i, %wide.trip.count.i
  br i1 %exitcond.not.i, label %._crit_edge.us.i, label %18, !llvm.loop !52

._crit_edge.us.i:                                 ; preds = %18
  %25 = getelementptr inbounds i8, ptr %.02631.us.i, i64 %3
  %26 = add nuw nsw i32 %.02532.us.i, 1
  %exitcond37.not.i = icmp eq i32 %26, %7
  br i1 %exitcond37.not.i, label %.preheader.i, label %.preheader29.us.i, !llvm.loop !54

.preheader.i:                                     ; preds = %._crit_edge.us.i, %14
  %27 = add i64 %13, -1
  %.not.i33 = icmp eq i64 %27, 0
  %.pre42.i = uitofp i64 %13 to float
  br i1 %.not.i33, label %compute_histogram8.exit, label %.lr.ph.i

.lr.ph.i:                                         ; preds = %.preheader.i
  %.pre.i = load float, ptr %10, align 4, !tbaa !50
  br label %28

28:                                               ; preds = %28, %.lr.ph.i
  %29 = phi float [ %.pre.i, %.lr.ph.i ], [ %33, %28 ]
  %indvars.iv38.i = phi i64 [ 0, %.lr.ph.i ], [ %indvars.iv.next39.i, %28 ]
  %30 = getelementptr inbounds nuw float, ptr %10, i64 %indvars.iv38.i
  %indvars.iv.next39.i = add nuw nsw i64 %indvars.iv38.i, 1
  %31 = getelementptr inbounds nuw float, ptr %10, i64 %indvars.iv.next39.i
  %32 = load float, ptr %31, align 4, !tbaa !50
  %33 = fadd nsz float %29, %32
  store float %33, ptr %31, align 4, !tbaa !50
  %34 = fdiv nsz float %29, %.pre42.i
  store float %34, ptr %30, align 4, !tbaa !50
  %exitcond41.not.i = icmp eq i64 %indvars.iv.next39.i, %27
  br i1 %exitcond41.not.i, label %compute_histogram8.exit, label %28, !llvm.loop !55

compute_histogram8.exit:                          ; preds = %28, %.preheader.i
  %35 = getelementptr inbounds nuw float, ptr %10, i64 %27
  %36 = load float, ptr %35, align 4, !tbaa !50
  %37 = fdiv nsz float %36, %.pre42.i
  store float %37, ptr %35, align 4, !tbaa !50
  tail call void @llvm.memset.p0.i64(ptr align 4 %11, i8 0, i64 %15, i1 false)
  %38 = icmp sgt i32 %9, 0
  %39 = icmp sgt i32 %8, 0
  %or.cond.i34 = and i1 %39, %38
  br i1 %or.cond.i34, label %.preheader29.us.preheader.i43, label %.preheader.i35

.preheader29.us.preheader.i43:                    ; preds = %compute_histogram8.exit
  %wide.trip.count.i44 = zext nneg i32 %8 to i64
  br label %.preheader29.us.i45

.preheader29.us.i45:                              ; preds = %._crit_edge.us.i51, %.preheader29.us.preheader.i43
  %.02532.us.i46 = phi i32 [ %48, %._crit_edge.us.i51 ], [ 0, %.preheader29.us.preheader.i43 ]
  %.02631.us.i47 = phi ptr [ %47, %._crit_edge.us.i51 ], [ %1, %.preheader29.us.preheader.i43 ]
  br label %40

40:                                               ; preds = %40, %.preheader29.us.i45
  %indvars.iv.i48 = phi i64 [ 0, %.preheader29.us.i45 ], [ %indvars.iv.next.i49, %40 ]
  %41 = getelementptr inbounds nuw i8, ptr %.02631.us.i47, i64 %indvars.iv.i48
  %42 = load i8, ptr %41, align 1, !tbaa !49
  %43 = zext i8 %42 to i64
  %44 = getelementptr inbounds nuw float, ptr %11, i64 %43
  %45 = load float, ptr %44, align 4, !tbaa !50
  %46 = fadd nsz float %45, 1.000000e+00
  store float %46, ptr %44, align 4, !tbaa !50
  %indvars.iv.next.i49 = add nuw nsw i64 %indvars.iv.i48, 1
  %exitcond.not.i50 = icmp eq i64 %indvars.iv.next.i49, %wide.trip.count.i44
  br i1 %exitcond.not.i50, label %._crit_edge.us.i51, label %40, !llvm.loop !52

._crit_edge.us.i51:                               ; preds = %40
  %47 = getelementptr inbounds i8, ptr %.02631.us.i47, i64 %4
  %48 = add nuw nsw i32 %.02532.us.i46, 1
  %exitcond37.not.i52 = icmp eq i32 %48, %9
  br i1 %exitcond37.not.i52, label %.preheader.i35, label %.preheader29.us.i45, !llvm.loop !54

.preheader.i35:                                   ; preds = %._crit_edge.us.i51, %compute_histogram8.exit
  br i1 %.not.i33, label %compute_histogram8.exit53.thread, label %.lr.ph.i38

compute_histogram8.exit53.thread:                 ; preds = %.preheader.i35
  %49 = getelementptr inbounds nuw float, ptr %11, i64 %27
  %50 = load float, ptr %49, align 4, !tbaa !50
  %51 = fdiv nsz float %50, %.pre42.i
  store float %51, ptr %49, align 4, !tbaa !50
  br label %.preheader.i55.preheader

.lr.ph.i38:                                       ; preds = %.preheader.i35
  %.pre.i39 = load float, ptr %11, align 4, !tbaa !50
  br label %52

52:                                               ; preds = %52, %.lr.ph.i38
  %53 = phi float [ %.pre.i39, %.lr.ph.i38 ], [ %57, %52 ]
  %indvars.iv38.i40 = phi i64 [ 0, %.lr.ph.i38 ], [ %indvars.iv.next39.i41, %52 ]
  %54 = getelementptr inbounds nuw float, ptr %11, i64 %indvars.iv38.i40
  %indvars.iv.next39.i41 = add nuw nsw i64 %indvars.iv38.i40, 1
  %55 = getelementptr inbounds nuw float, ptr %11, i64 %indvars.iv.next39.i41
  %56 = load float, ptr %55, align 4, !tbaa !50
  %57 = fadd nsz float %53, %56
  store float %57, ptr %55, align 4, !tbaa !50
  %58 = fdiv nsz float %53, %.pre42.i
  store float %58, ptr %54, align 4, !tbaa !50
  %exitcond41.not.i42 = icmp eq i64 %indvars.iv.next39.i41, %27
  br i1 %exitcond41.not.i42, label %compute_histogram8.exit53, label %52, !llvm.loop !55

compute_histogram8.exit53:                        ; preds = %52
  %59 = getelementptr inbounds nuw float, ptr %11, i64 %27
  %60 = load float, ptr %59, align 4, !tbaa !50
  %61 = fdiv nsz float %60, %.pre42.i
  store float %61, ptr %59, align 4, !tbaa !50
  %.not.i54 = icmp eq i64 %13, 0
  br i1 %.not.i54, label %compute_contrast_change.exit, label %.preheader.i55.preheader

.preheader.i55.preheader:                         ; preds = %compute_histogram8.exit53.thread, %compute_histogram8.exit53
  br label %.preheader.i55

.preheader.i55:                                   ; preds = %.preheader.i55.preheader, %.critedge.i
  %indvars.iv20.i = phi i64 [ %indvars.iv.next21.i, %.critedge.i ], [ 0, %.preheader.i55.preheader ]
  %62 = getelementptr inbounds nuw float, ptr %10, i64 %indvars.iv20.i
  %63 = load float, ptr %62, align 4, !tbaa !50
  br label %64

64:                                               ; preds = %68, %.preheader.i55
  %indvars.iv.i56 = phi i64 [ 0, %.preheader.i55 ], [ %indvars.iv.next.i57, %68 ]
  %65 = getelementptr inbounds nuw float, ptr %11, i64 %indvars.iv.i56
  %66 = load float, ptr %65, align 4, !tbaa !50
  %67 = fcmp nsz olt float %66, %63
  br i1 %67, label %68, label %.critedge.i

68:                                               ; preds = %64
  %indvars.iv.next.i57 = add nuw i64 %indvars.iv.i56, 1
  %exitcond.not.i58 = icmp eq i64 %indvars.iv.next.i57, %13
  br i1 %exitcond.not.i58, label %.critedge.i, label %64, !llvm.loop !56

.critedge.i:                                      ; preds = %68, %64
  %.0.lcssa.in.i = phi i64 [ %13, %68 ], [ %indvars.iv.i56, %64 ]
  %.0.lcssa.i = trunc i64 %.0.lcssa.in.i to i32
  %69 = trunc nuw nsw i64 %indvars.iv20.i to i32
  %70 = add nuw nsw i32 %.0.lcssa.i, %69
  %71 = lshr i32 %70, 1
  %72 = getelementptr inbounds nuw i32, ptr %12, i64 %indvars.iv20.i
  store i32 %71, ptr %72, align 4, !tbaa !40
  %indvars.iv.next21.i = add nuw nsw i64 %indvars.iv20.i, 1
  %exitcond23.not.i = icmp eq i64 %indvars.iv.next21.i, %13
  br i1 %exitcond23.not.i, label %compute_contrast_change.exit, label %.preheader.i55, !llvm.loop !57

compute_contrast_change.exit:                     ; preds = %.critedge.i, %compute_histogram8.exit53
  %brmerge.demorgan = and i1 %16, %17
  br i1 %brmerge.demorgan, label %.preheader.us.preheader, label %._crit_edge63

.preheader.us.preheader:                          ; preds = %compute_contrast_change.exit
  %wide.trip.count = zext nneg i32 %6 to i64
  br label %.preheader.us

.preheader.us:                                    ; preds = %.preheader.us.preheader, %._crit_edge.us
  %.062.us = phi i32 [ %84, %._crit_edge.us ], [ 0, %.preheader.us.preheader ]
  %.03161.us = phi ptr [ %83, %._crit_edge.us ], [ %0, %.preheader.us.preheader ]
  %.03260.us = phi ptr [ %82, %._crit_edge.us ], [ %2, %.preheader.us.preheader ]
  br label %73

73:                                               ; preds = %.preheader.us, %73
  %indvars.iv = phi i64 [ 0, %.preheader.us ], [ %indvars.iv.next, %73 ]
  %74 = getelementptr inbounds nuw i8, ptr %.03161.us, i64 %indvars.iv
  %75 = load i8, ptr %74, align 1, !tbaa !49
  %76 = zext i8 %75 to i64
  %77 = getelementptr inbounds nuw i32, ptr %12, i64 %76
  %78 = load i32, ptr %77, align 4, !tbaa !40
  %.not.i.us = icmp ult i32 %78, 256
  %isnotneg.i.us = icmp sgt i32 %78, -1
  %79 = sext i1 %isnotneg.i.us to i8
  %80 = trunc nuw i32 %78 to i8
  %.0.i.us = select i1 %.not.i.us, i8 %80, i8 %79
  %81 = getelementptr inbounds nuw i8, ptr %.03260.us, i64 %indvars.iv
  store i8 %.0.i.us, ptr %81, align 1, !tbaa !49
  %indvars.iv.next = add nuw nsw i64 %indvars.iv, 1
  %exitcond.not = icmp eq i64 %indvars.iv.next, %wide.trip.count
  br i1 %exitcond.not, label %._crit_edge.us, label %73, !llvm.loop !58

._crit_edge.us:                                   ; preds = %73
  %82 = getelementptr inbounds i8, ptr %.03260.us, i64 %5
  %83 = getelementptr inbounds i8, ptr %.03161.us, i64 %3
  %84 = add nuw nsw i32 %.062.us, 1
  %exitcond66.not = icmp eq i32 %84, %7
  br i1 %exitcond66.not, label %._crit_edge63, label %.preheader.us, !llvm.loop !59

._crit_edge63:                                    ; preds = %._crit_edge.us, %compute_contrast_change.exit
  ret void
}